target datalayout = "e-m:e-p270:32:32-p271:32:32-p272:64:64-i64:64-f80:128-n8:16:32:64-S128"
target triple = "x86_64-pc-linux-gnu"

%struct.score = type { i32, i32, i32 }

@.str = private unnamed_addr constant [3 x i8] c"%d\00", align 1
@.str.1 = private unnamed_addr constant [7 x i8] c"%d%d%d\00", align 1
@.str.2 = private unnamed_addr constant [7 x i8] c"%d %d\0A\00", align 1

; Function Attrs: noinline nounwind uwtable
define dso_local void @main() #0 {
  %1 = alloca i32, align 4
  %2 = alloca i32, align 4
  %3 = alloca i32*, align 8
  %4 = alloca i32, align 4
  %5 = alloca i32, align 4
  %6 = alloca %struct.score*, align 8
  store i32 0, i32* %5, align 4
  %7 = call i32 (i8*, ...) @__isoc99_scanf(i8* getelementptr inbounds ([3 x i8], [3 x i8]* @.str, i64 0, i64 0), i32* %1)
  %8 = load i32, i32* %1, align 4
  %9 = sext i32 %8 to i64
  %10 = mul i64 12, %9
  %11 = call noalias i8* @malloc(i64 %10) #3
  %12 = bitcast i8* %11 to %struct.score*
  store %struct.score* %12, %struct.score** %6, align 8
  %13 = load i32, i32* %1, align 4
  %14 = sext i32 %13 to i64
  %15 = mul i64 4, %14
  %16 = call noalias i8* @malloc(i64 %15) #3
  %17 = bitcast i8* %16 to i32*
  store i32* %17, i32** %3, align 8
  store i32 0, i32* %2, align 4
  br label %18

18:                                               ; preds = %39, %0
  %19 = load i32, i32* %2, align 4
  %20 = load i32, i32* %1, align 4
  %21 = icmp slt i32 %19, %20
  br i1 %21, label %22, label %42

22:                                               ; preds = %18
  %23 = load %struct.score*, %struct.score** %6, align 8
  %24 = load i32, i32* %2, align 4
  %25 = sext i32 %24 to i64
  %26 = getelementptr inbounds %struct.score, %struct.score* %23, i64 %25
  %27 = getelementptr inbounds %struct.score, %struct.score* %26, i32 0, i32 0
  %28 = load %struct.score*, %struct.score** %6, align 8
  %29 = load i32, i32* %2, align 4
  %30 = sext i32 %29 to i64
  %31 = getelementptr inbounds %struct.score, %struct.score* %28, i64 %30
  %32 = getelementptr inbounds %struct.score, %struct.score* %31, i32 0, i32 1
  %33 = load %struct.score*, %struct.score** %6, align 8
  %34 = load i32, i32* %2, align 4
  %35 = sext i32 %34 to i64
  %36 = getelementptr inbounds %struct.score, %struct.score* %33, i64 %35
  %37 = getelementptr inbounds %struct.score, %struct.score* %36, i32 0, i32 2
  %38 = call i32 (i8*, ...) @__isoc99_scanf(i8* getelementptr inbounds ([7 x i8], [7 x i8]* @.str.1, i64 0, i64 0), i32* %27, i32* %32, i32* %37)
  br label %39

39:                                               ; preds = %22
  %40 = load i32, i32* %2, align 4
  %41 = add nsw i32 %40, 1
  store i32 %41, i32* %2, align 4
  br label %18

42:                                               ; preds = %18
  store i32 0, i32* %2, align 4
  br label %43

43:                                               ; preds = %65, %42
  %44 = load i32, i32* %2, align 4
  %45 = load i32, i32* %1, align 4
  %46 = icmp slt i32 %44, %45
  br i1 %46, label %47, label %68

47:                                               ; preds = %43
  %48 = load %struct.score*, %struct.score** %6, align 8
  %49 = load i32, i32* %2, align 4
  %50 = sext i32 %49 to i64
  %51 = getelementptr inbounds %struct.score, %struct.score* %48, i64 %50
  %52 = getelementptr inbounds %struct.score, %struct.score* %51, i32 0, i32 1
  %53 = load i32, i32* %52, align 4
  %54 = load %struct.score*, %struct.score** %6, align 8
  %55 = load i32, i32* %2, align 4
  %56 = sext i32 %55 to i64
  %57 = getelementptr inbounds %struct.score, %struct.score* %54, i64 %56
  %58 = getelementptr inbounds %struct.score, %struct.score* %57, i32 0, i32 2
  %59 = load i32, i32* %58, align 4
  %60 = add nsw i32 %53, %59
  %61 = load i32*, i32** %3, align 8
  %62 = load i32, i32* %2, align 4
  %63 = sext i32 %62 to i64
  %64 = getelementptr inbounds i32, i32* %61, i64 %63
  store i32 %60, i32* %64, align 4
  br label %65

65:                                               ; preds = %47
  %66 = load i32, i32* %2, align 4
  %67 = add nsw i32 %66, 1
  store i32 %67, i32* %2, align 4
  br label %43

68:                                               ; preds = %43
  %69 = load i32*, i32** %3, align 8
  %70 = getelementptr inbounds i32, i32* %69, i64 0
  %71 = load i32, i32* %70, align 4
  store i32 %71, i32* %4, align 4
  store i32 0, i32* %2, align 4
  br label %72

72:                                               ; preds = %92, %68
  %73 = load i32, i32* %2, align 4
  %74 = load i32, i32* %1, align 4
  %75 = icmp slt i32 %73, %74
  br i1 %75, label %76, label %95

76:                                               ; preds = %72
  %77 = load i32, i32* %4, align 4
  %78 = load i32*, i32** %3, align 8
  %79 = load i32, i32* %2, align 4
  %80 = sext i32 %79 to i64
  %81 = getelementptr inbounds i32, i32* %78, i64 %80
  %82 = load i32, i32* %81, align 4
  %83 = icmp slt i32 %77, %82
  br i1 %83, label %84, label %91

84:                                               ; preds = %76
  %85 = load i32*, i32** %3, align 8
  %86 = load i32, i32* %2, align 4
  %87 = sext i32 %86 to i64
  %88 = getelementptr inbounds i32, i32* %85, i64 %87
  %89 = load i32, i32* %88, align 4
  store i32 %89, i32* %4, align 4
  %90 = load i32, i32* %2, align 4
  store i32 %90, i32* %5, align 4
  br label %91

91:                                               ; preds = %84, %76
  br label %92

92:                                               ; preds = %91
  %93 = load i32, i32* %2, align 4
  %94 = add nsw i32 %93, 1
  store i32 %94, i32* %2, align 4
  br label %72

95:                                               ; preds = %72
  %96 = load %struct.score*, %struct.score** %6, align 8
  %97 = load i32, i32* %5, align 4
  %98 = sext i32 %97 to i64
  %99 = getelementptr inbounds %struct.score, %struct.score* %96, i64 %98
  %100 = getelementptr inbounds %struct.score, %struct.score* %99, i32 0, i32 0
  %101 = load i32, i32* %100, align 4
  %102 = load i32*, i32** %3, align 8
  %103 = load i32, i32* %5, align 4
  %104 = sext i32 %103 to i64
  %105 = getelementptr inbounds i32, i32* %102, i64 %104
  %106 = load i32, i32* %105, align 4
  %107 = call i32 (i8*, ...) @printf(i8* getelementptr inbounds ([7 x i8], [7 x i8]* @.str.2, i64 0, i64 0), i32 %101, i32 %106)
  %108 = load i32, i32* %1, align 4
  %109 = icmp sgt i32 %108, 1
  br i1 %109, label %110, label %199

110:                                              ; preds = %95
  %111 = load i32*, i32** %3, align 8
  %112 = load i32, i32* %111, align 4
  store i32 %112, i32* %4, align 4
  %113 = load i32*, i32** %3, align 8
  %114 = load i32, i32* %5, align 4
  %115 = sext i32 %114 to i64
  %116 = getelementptr inbounds i32, i32* %113, i64 %115
  store i32 0, i32* %116, align 4
  store i32 0, i32* %5, align 4
  store i32 0, i32* %2, align 4
  br label %117

117:                                              ; preds = %137, %110
  %118 = load i32, i32* %2, align 4
  %119 = load i32, i32* %1, align 4
  %120 = icmp slt i32 %118, %119
  br i1 %120, label %121, label %140

121:                                              ; preds = %117
  %122 = load i32, i32* %4, align 4
  %123 = load i32*, i32** %3, align 8
  %124 = load i32, i32* %2, align 4
  %125 = sext i32 %124 to i64
  %126 = getelementptr inbounds i32, i32* %123, i64 %125
  %127 = load i32, i32* %126, align 4
  %128 = icmp slt i32 %122, %127
  br i1 %128, label %129, label %136

129:                                              ; preds = %121
  %130 = load i32*, i32** %3, align 8
  %131 = load i32, i32* %2, align 4
  %132 = sext i32 %131 to i64
  %133 = getelementptr inbounds i32, i32* %130, i64 %132
  %134 = load i32, i32* %133, align 4
  store i32 %134, i32* %4, align 4
  %135 = load i32, i32* %2, align 4
  store i32 %135, i32* %5, align 4
  br label %136

136:                                              ; preds = %129, %121
  br label %137

137:                                              ; preds = %136
  %138 = load i32, i32* %2, align 4
  %139 = add nsw i32 %138, 1
  store i32 %139, i32* %2, align 4
  br label %117

140:                                              ; preds = %117
  %141 = load %struct.score*, %struct.score** %6, align 8
  %142 = load i32, i32* %5, align 4
  %143 = sext i32 %142 to i64
  %144 = getelementptr inbounds %struct.score, %struct.score* %141, i64 %143
  %145 = getelementptr inbounds %struct.score, %struct.score* %144, i32 0, i32 0
  %146 = load i32, i32* %145, align 4
  %147 = load i32*, i32** %3, align 8
  %148 = load i32, i32* %5, align 4
  %149 = sext i32 %148 to i64
  %150 = getelementptr inbounds i32, i32* %147, i64 %149
  %151 = load i32, i32* %150, align 4
  %152 = call i32 (i8*, ...) @printf(i8* getelementptr inbounds ([7 x i8], [7 x i8]* @.str.2, i64 0, i64 0), i32 %146, i32 %151)
  %153 = load i32, i32* %1, align 4
  %154 = icmp sgt i32 %153, 2
  br i1 %154, label %155, label %198

155:                                              ; preds = %140
  %156 = load i32*, i32** %3, align 8
  %157 = load i32, i32* %156, align 4
  store i32 %157, i32* %4, align 4
  %158 = load i32*, i32** %3, align 8
  %159 = load i32, i32* %5, align 4
  %160 = sext i32 %159 to i64
  %161 = getelementptr inbounds i32, i32* %158, i64 %160
  store i32 0, i32* %161, align 4
  store i32 0, i32* %5, align 4
  store i32 0, i32* %2, align 4
  br label %162

162:                                              ; preds = %182, %155
  %163 = load i32, i32* %2, align 4
  %164 = load i32, i32* %1, align 4
  %165 = icmp slt i32 %163, %164
  br i1 %165, label %166, label %185

166:                                              ; preds = %162
  %167 = load i32, i32* %4, align 4
  %168 = load i32*, i32** %3, align 8
  %169 = load i32, i32* %2, align 4
  %170 = sext i32 %169 to i64
  %171 = getelementptr inbounds i32, i32* %168, i64 %170
  %172 = load i32, i32* %171, align 4
  %173 = icmp slt i32 %167, %172
  br i1 %173, label %174, label %181

174:                                              ; preds = %166
  %175 = load i32*, i32** %3, align 8
  %176 = load i32, i32* %2, align 4
  %177 = sext i32 %176 to i64
  %178 = getelementptr inbounds i32, i32* %175, i64 %177
  %179 = load i32, i32* %178, align 4
  store i32 %179, i32* %4, align 4
  %180 = load i32, i32* %2, align 4
  store i32 %180, i32* %5, align 4
  br label %181

181:                                              ; preds = %174, %166
  br label %182

182:                                              ; preds = %181
  %183 = load i32, i32* %2, align 4
  %184 = add nsw i32 %183, 1
  store i32 %184, i32* %2, align 4
  br label %162

185:                                              ; preds = %162
  %186 = load %struct.score*, %struct.score** %6, align 8
  %187 = load i32, i32* %5, align 4
  %188 = sext i32 %187 to i64
  %189 = getelementptr inbounds %struct.score, %struct.score* %186, i64 %188
  %190 = getelementptr inbounds %struct.score, %struct.score* %189, i32 0, i32 0
  %191 = load i32, i32* %190, align 4
  %192 = load i32*, i32** %3, align 8
  %193 = load i32, i32* %5, align 4
  %194 = sext i32 %193 to i64
  %195 = getelementptr inbounds i32, i32* %192, i64 %194
  %196 = load i32, i32* %195, align 4
  %197 = call i32 (i8*, ...) @printf(i8* getelementptr inbounds ([7 x i8], [7 x i8]* @.str.2, i64 0, i64 0), i32 %191, i32 %196)
  br label %198

198:                                              ; preds = %185, %140
  br label %199

199:                                              ; preds = %198, %95
  ret void
}